target datalayout = "e-m:e-p270:32:32-p271:32:32-p272:64:64-i64:64-i128:128-f80:128-n8:16:32:64-S128"
target triple = "x86_64-pc-linux-gnu"

%struct.H5FL_reg_head_t = type { i8, i32, i32, ptr, i64, ptr }
%struct.H5F_t = type { ptr, ptr, ptr, ptr, i32, ptr, i8, i8, ptr, i32 }

@.str = private unnamed_addr constant [109 x i8] c"generated/home/dtcxzyw/WorkSpace/Projects/compilers/llvm-opt-benchmark/bench/hdf5/hdf5/src/H5VLnative_file.c\00", align 1
@H5E_FILE_g = external global i64, align 8
@H5E_CANTGET_g = external global i64, align 8
@H5E_CANTFLUSH_g = external global i64, align 8
@H5_H5F_t_reg_free_list = external global %struct.H5FL_reg_head_t, align 8
@__func__.H5VL__native_file_close = private unnamed_addr constant [24 x i8] c"H5VL__native_file_close\00", align 1
@H5E_ID_g = external global i64, align 8
@.str.47 = private unnamed_addr constant [11 x i8] c"invalid ID\00", align 1
@.str.48 = private unnamed_addr constant [23 x i8] c"can't get ID ref count\00", align 1
@.str.49 = private unnamed_addr constant [22 x i8] c"unable to flush cache\00", align 1
@H5E_CANTDEC_g = external global i64, align 8
@.str.50 = private unnamed_addr constant [17 x i8] c"can't close file\00", align 1

; Function Attrs: nounwind uwtable
define i32 @H5VL__native_file_close(ptr noundef %0, i64 noundef %1, ptr noundef %2) #0 {
  %4 = alloca ptr, align 8
  %5 = alloca i64, align 8
  %6 = alloca ptr, align 8
  %7 = alloca i32, align 4
  %8 = alloca ptr, align 8
  %9 = alloca i64, align 8
  %10 = alloca i32, align 4
  %11 = alloca i8, align 1
  store ptr %0, ptr %4, align 8, !tbaa !12
  store i64 %1, ptr %5, align 8, !tbaa !10
  store ptr %2, ptr %6, align 8, !tbaa !12
  call void @llvm.lifetime.start.p0(i64 4, ptr %7) #5
  call void @llvm.lifetime.start.p0(i64 8, ptr %8) #5
  %12 = load ptr, ptr %4, align 8, !tbaa !12
  store ptr %12, ptr %8, align 8, !tbaa !13
  call void @llvm.lifetime.start.p0(i64 8, ptr %9) #5
  store i64 -1, ptr %9, align 8, !tbaa !10
  call void @llvm.lifetime.start.p0(i64 4, ptr %10) #5
  store i32 0, ptr %10, align 4, !tbaa !8
  call void @llvm.lifetime.start.p0(i64 1, ptr %11) #5
  store i8 0, ptr %11, align 1, !tbaa !15
  %13 = load ptr, ptr %8, align 8, !tbaa !13
  %14 = getelementptr inbounds nuw %struct.H5F_t, ptr %13, i32 0, i32 2
  %15 = load ptr, ptr %14, align 8, !tbaa !29
  %16 = icmp eq ptr %15, null
  br i1 %16, label %17, label %20

17:                                               ; preds = %3
  %18 = load ptr, ptr %8, align 8, !tbaa !13
  %19 = call ptr @H5FL_reg_free(ptr noundef @H5_H5F_t_reg_free_list, ptr noundef %18)
  store ptr %19, ptr %8, align 8, !tbaa !13
  br label %130

20:                                               ; preds = %3
  %21 = load ptr, ptr %8, align 8, !tbaa !13
  %22 = call i32 @H5F_get_nrefs(ptr noundef %21)
  %23 = icmp ugt i32 %22, 1
  br i1 %23, label %24, label %106

24:                                               ; preds = %20
  %25 = load ptr, ptr %8, align 8, !tbaa !13
  %26 = call i32 @H5F_get_intent(ptr noundef %25)
  %27 = and i32 %26, 1
  %28 = icmp ne i32 %27, 0
  br i1 %28, label %29, label %106

29:                                               ; preds = %24
  %30 = load ptr, ptr %8, align 8, !tbaa !13
  %31 = call i32 @H5I_find_id(ptr noundef %30, i32 noundef 1, ptr noundef %9)
  %32 = icmp slt i32 %31, 0
  br i1 %32, label %36, label %33

33:                                               ; preds = %29
  %34 = load i64, ptr %9, align 8, !tbaa !10
  %35 = icmp eq i64 -1, %34
  br i1 %35, label %36, label %55

36:                                               ; preds = %33, %29
  br label %37

37:                                               ; preds = %36
  br label %38

38:                                               ; preds = %37
  br label %39

39:                                               ; preds = %38
  %40 = load i64, ptr @H5E_ID_g, align 8, !tbaa !10
  %41 = load i64, ptr @H5E_CANTGET_g, align 8, !tbaa !10
  %42 = call i32 (ptr, ptr, i32, i64, i64, ptr, ...) @H5E_printf_stack(ptr noundef @.str, ptr noundef @__func__.H5VL__native_file_close, i32 noundef 766, i64 noundef %40, i64 noundef %41, ptr noundef @.str.47)
  br label %43

43:                                               ; preds = %39
  br label %44

44:                                               ; preds = %43
  store i8 1, ptr %11, align 1, !tbaa !15
  %45 = load i8, ptr %11, align 1, !tbaa !15, !range !17, !noundef !18
  %46 = trunc i8 %45 to i1
  %47 = zext i1 %46 to i8
  store i8 %47, ptr %11, align 1, !tbaa !15
  br label %48

48:                                               ; preds = %44
  br label %49

49:                                               ; preds = %48
  br label %50

50:                                               ; preds = %49
  store i32 -1, ptr %10, align 4, !tbaa !8
  br label %131

51:                                               ; No predecessors!
  br label %52

52:                                               ; preds = %51
  br label %53

53:                                               ; preds = %52
  br label %54

54:                                               ; preds = %53
  br label %55

55:                                               ; preds = %54, %33
  %56 = load i64, ptr %9, align 8, !tbaa !10
  %57 = call i32 @H5I_get_ref(i64 noundef %56, i1 noundef zeroext false)
  store i32 %57, ptr %7, align 4, !tbaa !8
  %58 = icmp slt i32 %57, 0
  br i1 %58, label %59, label %78

59:                                               ; preds = %55
  br label %60

60:                                               ; preds = %59
  br label %61

61:                                               ; preds = %60
  br label %62

62:                                               ; preds = %61
  %63 = load i64, ptr @H5E_ID_g, align 8, !tbaa !10
  %64 = load i64, ptr @H5E_CANTGET_g, align 8, !tbaa !10
  %65 = call i32 (ptr, ptr, i32, i64, i64, ptr, ...) @H5E_printf_stack(ptr noundef @.str, ptr noundef @__func__.H5VL__native_file_close, i32 noundef 770, i64 noundef %63, i64 noundef %64, ptr noundef @.str.48)
  br label %66

66:                                               ; preds = %62
  br label %67

67:                                               ; preds = %66
  store i8 1, ptr %11, align 1, !tbaa !15
  %68 = load i8, ptr %11, align 1, !tbaa !15, !range !17, !noundef !18
  %69 = trunc i8 %68 to i1
  %70 = zext i1 %69 to i8
  store i8 %70, ptr %11, align 1, !tbaa !15
  br label %71

71:                                               ; preds = %67
  br label %72

72:                                               ; preds = %71
  br label %73

73:                                               ; preds = %72
  store i32 -1, ptr %10, align 4, !tbaa !8
  br label %131

74:                                               ; No predecessors!
  br label %75

75:                                               ; preds = %74
  br label %76

76:                                               ; preds = %75
  br label %77

77:                                               ; preds = %76
  br label %78

78:                                               ; preds = %77, %55
  %79 = load i32, ptr %7, align 4, !tbaa !8
  %80 = icmp eq i32 %79, 1
  br i1 %80, label %81, label %105

81:                                               ; preds = %78
  %82 = load ptr, ptr %8, align 8, !tbaa !13
  %83 = call i32 @H5F__flush(ptr noundef %82)
  %84 = icmp slt i32 %83, 0
  br i1 %84, label %85, label %104

85:                                               ; preds = %81
  br label %86

86:                                               ; preds = %85
  br label %87

87:                                               ; preds = %86
  br label %88

88:                                               ; preds = %87
  %89 = load i64, ptr @H5E_FILE_g, align 8, !tbaa !10
  %90 = load i64, ptr @H5E_CANTFLUSH_g, align 8, !tbaa !10
  %91 = call i32 (ptr, ptr, i32, i64, i64, ptr, ...) @H5E_printf_stack(ptr noundef @.str, ptr noundef @__func__.H5VL__native_file_close, i32 noundef 773, i64 noundef %89, i64 noundef %90, ptr noundef @.str.49)
  br label %92

92:                                               ; preds = %88
  br label %93

93:                                               ; preds = %92
  store i8 1, ptr %11, align 1, !tbaa !15
  %94 = load i8, ptr %11, align 1, !tbaa !15, !range !17, !noundef !18
  %95 = trunc i8 %94 to i1
  %96 = zext i1 %95 to i8
  store i8 %96, ptr %11, align 1, !tbaa !15
  br label %97

97:                                               ; preds = %93
  br label %98

98:                                               ; preds = %97
  br label %99

99:                                               ; preds = %98
  store i32 -1, ptr %10, align 4, !tbaa !8
  br label %131

100:                                              ; No predecessors!
  br label %101

101:                                              ; preds = %100
  br label %102

102:                                              ; preds = %101
  br label %103

103:                                              ; preds = %102
  br label %104

104:                                              ; preds = %103, %81
  br label %105

105:                                              ; preds = %104, %78
  br label %106

106:                                              ; preds = %105, %24, %20
  %107 = load ptr, ptr %8, align 8, !tbaa !13
  %108 = call i32 @H5F__close(ptr noundef %107)
  %109 = icmp slt i32 %108, 0
  br i1 %109, label %110, label %129

110:                                              ; preds = %106
  br label %111

111:                                              ; preds = %110
  br label %112

112:                                              ; preds = %111
  br label %113

113:                                              ; preds = %112
  %114 = load i64, ptr @H5E_FILE_g, align 8, !tbaa !10
  %115 = load i64, ptr @H5E_CANTDEC_g, align 8, !tbaa !10
  %116 = call i32 (ptr, ptr, i32, i64, i64, ptr, ...) @H5E_printf_stack(ptr noundef @.str, ptr noundef @__func__.H5VL__native_file_close, i32 noundef 778, i64 noundef %114, i64 noundef %115, ptr noundef @.str.50)
  br label %117

117:                                              ; preds = %113
  br label %118

118:                                              ; preds = %117
  store i8 1, ptr %11, align 1, !tbaa !15
  %119 = load i8, ptr %11, align 1, !tbaa !15, !range !17, !noundef !18
  %120 = trunc i8 %119 to i1
  %121 = zext i1 %120 to i8
  store i8 %121, ptr %11, align 1, !tbaa !15
  br label %122

122:                                              ; preds = %118
  br label %123

123:                                              ; preds = %122
  br label %124

124:                                              ; preds = %123
  store i32 -1, ptr %10, align 4, !tbaa !8
  br label %131

125:                                              ; No predecessors!
  br label %126

126:                                              ; preds = %125
  br label %127

127:                                              ; preds = %126
  br label %128

128:                                              ; preds = %127
  br label %129

129:                                              ; preds = %128, %106
  br label %130

130:                                              ; preds = %129, %17
  br label %131

131:                                              ; preds = %130, %124, %99, %73, %50
  %132 = load i32, ptr %10, align 4, !tbaa !8
  call void @llvm.lifetime.end.p0(i64 1, ptr %11) #5
  call void @llvm.lifetime.end.p0(i64 4, ptr %10) #5
  call void @llvm.lifetime.end.p0(i64 8, ptr %9) #5
  call void @llvm.lifetime.end.p0(i64 8, ptr %8) #5
  call void @llvm.lifetime.end.p0(i64 4, ptr %7) #5
  ret i32 %132
}