; Function Attrs: nounwind uwtable
define range(i32 -1, 1) i32 @H5VL__native_file_close(ptr noundef %0, i64 noundef %1, ptr noundef readnone captures(none) %2) local_unnamed_addr #0 {
  %4 = alloca i64, align 8
  call void @llvm.lifetime.start.p0(i64 8, ptr nonnull %4) #6
  store i64 -1, ptr %4, align 8, !tbaa !16
  %5 = getelementptr inbounds nuw i8, ptr %0, i64 16
  %6 = load ptr, ptr %5, align 8, !tbaa !21
  %7 = icmp eq ptr %6, null
  br i1 %7, label %8, label %10

8:                                                ; preds = %3
  %9 = tail call ptr @H5FL_reg_free(ptr noundef nonnull @H5_H5F_t_reg_free_list, ptr noundef nonnull %0) #6
  br label %48

10:                                               ; preds = %3
  %11 = tail call i32 @H5F_get_nrefs(ptr noundef nonnull %0) #6
  %12 = icmp ugt i32 %11, 1
  br i1 %12, label %13, label %41

13:                                               ; preds = %10
  %14 = tail call i32 @H5F_get_intent(ptr noundef nonnull %0) #6
  %15 = and i32 %14, 1
  %.not = icmp eq i32 %15, 0
  br i1 %.not, label %41, label %16

16:                                               ; preds = %13
  %17 = call i32 @H5I_find_id(ptr noundef nonnull %0, i32 noundef 1, ptr noundef nonnull %4) #6
  %18 = icmp slt i32 %17, 0
  %19 = load i64, ptr %4, align 8
  %20 = icmp eq i64 %19, -1
  %or.cond = select i1 %18, i1 true, i1 %20
  br i1 %or.cond, label %21, label %25

21:                                               ; preds = %16
  %22 = load i64, ptr @H5E_ID_g, align 8, !tbaa !16
  %23 = load i64, ptr @H5E_CANTGET_g, align 8, !tbaa !16
  %24 = call i32 (ptr, ptr, i32, i64, i64, ptr, ...) @H5E_printf_stack(ptr noundef nonnull @.str, ptr noundef nonnull @__func__.H5VL__native_file_close, i32 noundef 766, i64 noundef %22, i64 noundef %23, ptr noundef nonnull @.str.47) #6
  br label %48

25:                                               ; preds = %16
  %26 = call i32 @H5I_get_ref(i64 noundef %19, i1 noundef zeroext false) #6
  %27 = icmp slt i32 %26, 0
  br i1 %27, label %28, label %32

28:                                               ; preds = %25
  %29 = load i64, ptr @H5E_ID_g, align 8, !tbaa !16
  %30 = load i64, ptr @H5E_CANTGET_g, align 8, !tbaa !16
  %31 = call i32 (ptr, ptr, i32, i64, i64, ptr, ...) @H5E_printf_stack(ptr noundef nonnull @.str, ptr noundef nonnull @__func__.H5VL__native_file_close, i32 noundef 770, i64 noundef %29, i64 noundef %30, ptr noundef nonnull @.str.48) #6
  br label %48

32:                                               ; preds = %25
  %33 = icmp eq i32 %26, 1
  br i1 %33, label %34, label %41

34:                                               ; preds = %32
  %35 = call i32 @H5F__flush(ptr noundef nonnull %0) #6
  %36 = icmp slt i32 %35, 0
  br i1 %36, label %37, label %41

37:                                               ; preds = %34
  %38 = load i64, ptr @H5E_FILE_g, align 8, !tbaa !16
  %39 = load i64, ptr @H5E_CANTFLUSH_g, align 8, !tbaa !16
  %40 = call i32 (ptr, ptr, i32, i64, i64, ptr, ...) @H5E_printf_stack(ptr noundef nonnull @.str, ptr noundef nonnull @__func__.H5VL__native_file_close, i32 noundef 773, i64 noundef %38, i64 noundef %39, ptr noundef nonnull @.str.49) #6
  br label %48

41:                                               ; preds = %32, %34, %13, %10
  %42 = call i32 @H5F__close(ptr noundef nonnull %0) #6
  %43 = icmp slt i32 %42, 0
  br i1 %43, label %44, label %48

44:                                               ; preds = %41
  %45 = load i64, ptr @H5E_FILE_g, align 8, !tbaa !16
  %46 = load i64, ptr @H5E_CANTDEC_g, align 8, !tbaa !16
  %47 = call i32 (ptr, ptr, i32, i64, i64, ptr, ...) @H5E_printf_stack(ptr noundef nonnull @.str, ptr noundef nonnull @__func__.H5VL__native_file_close, i32 noundef 778, i64 noundef %45, i64 noundef %46, ptr noundef nonnull @.str.50) #6
  br label %48

48:                                               ; preds = %8, %41, %44, %37, %28, %21
  %.0 = phi i32 [ 0, %8 ], [ -1, %21 ], [ -1, %28 ], [ -1, %37 ], [ -1, %44 ], [ 0, %41 ]
  call void @llvm.lifetime.end.p0(i64 8, ptr nonnull %4) #6
  ret i32 %.0
}